target datalayout = "e-m:e-p270:32:32-p271:32:32-p272:64:64-i64:64-i128:128-f80:128-n8:16:32:64-S128"
target triple = "x86_64-pc-linux-gnu"

%struct.DdManager = type { %struct.DdNode, ptr, ptr, ptr, ptr, ptr, ptr, ptr, i32, i32, double, double, double, i32, i32, i32, i32, i32, i32, ptr, ptr, %struct.DdSubtable, i32, i32, i32, i32, i32, i32, i32, double, i32, i32, i32, ptr, i64, double, i32, ptr, ptr, ptr, ptr, ptr, ptr, ptr, i32, ptr, ptr, ptr, ptr, ptr, ptr, i32, i32, i32, double, i32, i32, i32, i32, double, double, i32, i32, i32, i32, i32, i32, i32, i32, i32, ptr, ptr, i32, i32, i32, i32, i32, i32, ptr, ptr, ptr, ptr, ptr, ptr, ptr, ptr, i32, i64, i64, i64, i32, i64, i64, double, double, double, double, double, double, i32, ptr, ptr, i64 }
%struct.DdNode = type { i32, i32, ptr, %union.anon, i64 }
%union.anon = type { %struct.DdChildren }
%struct.DdChildren = type { ptr, ptr }
%struct.DdSubtable = type { ptr, i32, i32, i32, i32, i32, i32, i32, i32, i32, i32, i32 }

; Function Attrs: nounwind uwtable
define internal ptr @cuddAddGeneralVectorComposeRecur(ptr noundef %0, ptr noundef %1, ptr noundef %2, ptr noundef %3, ptr noundef %4, i32 noundef %5) #0 {
  %7 = alloca ptr, align 8
  %8 = alloca ptr, align 8
  %9 = alloca ptr, align 8
  %10 = alloca ptr, align 8
  %11 = alloca ptr, align 8
  %12 = alloca ptr, align 8
  %13 = alloca i32, align 4
  %14 = alloca ptr, align 8
  %15 = alloca ptr, align 8
  %16 = alloca ptr, align 8
  %17 = alloca ptr, align 8
  %18 = alloca ptr, align 8
  %19 = alloca i32, align 4
  %20 = alloca i64, align 8
  store ptr %0, ptr %8, align 8, !tbaa !3
  store ptr %1, ptr %9, align 8, !tbaa !38
  store ptr %2, ptr %10, align 8, !tbaa !8
  store ptr %3, ptr %11, align 8, !tbaa !44
  store ptr %4, ptr %12, align 8, !tbaa !44
  store i32 %5, ptr %13, align 4, !tbaa !10
  call void @llvm.lifetime.start.p0(i64 8, ptr %14) #6
  call void @llvm.lifetime.start.p0(i64 8, ptr %15) #6
  call void @llvm.lifetime.start.p0(i64 8, ptr %16) #6
  call void @llvm.lifetime.start.p0(i64 8, ptr %17) #6
  call void @llvm.lifetime.start.p0(i64 8, ptr %18) #6
  %21 = load ptr, ptr %10, align 8, !tbaa !8
  %22 = getelementptr inbounds nuw %struct.DdNode, ptr %21, i32 0, i32 0
  %23 = load i32, ptr %22, align 8, !tbaa !33
  %24 = icmp eq i32 %23, 2147483647
  br i1 %24, label %25, label %29

25:                                               ; preds = %6
  %26 = load ptr, ptr %10, align 8, !tbaa !8
  %27 = getelementptr inbounds nuw %struct.DdNode, ptr %26, i32 0, i32 0
  %28 = load i32, ptr %27, align 8, !tbaa !33
  br label %39

29:                                               ; preds = %6
  %30 = load ptr, ptr %8, align 8, !tbaa !3
  %31 = getelementptr inbounds nuw %struct.DdManager, ptr %30, i32 0, i32 37
  %32 = load ptr, ptr %31, align 8, !tbaa !32
  %33 = load ptr, ptr %10, align 8, !tbaa !8
  %34 = getelementptr inbounds nuw %struct.DdNode, ptr %33, i32 0, i32 0
  %35 = load i32, ptr %34, align 8, !tbaa !33
  %36 = zext i32 %35 to i64
  %37 = getelementptr inbounds nuw i32, ptr %32, i64 %36
  %38 = load i32, ptr %37, align 4, !tbaa !10
  br label %39

39:                                               ; preds = %29, %25
  %40 = phi i32 [ %28, %25 ], [ %38, %29 ]
  %41 = load i32, ptr %13, align 4, !tbaa !10
  %42 = icmp sgt i32 %40, %41
  br i1 %42, label %43, label %45

43:                                               ; preds = %39
  %44 = load ptr, ptr %10, align 8, !tbaa !8
  store ptr %44, ptr %7, align 8
  store i32 1, ptr %19, align 4
  br label %213

45:                                               ; preds = %39
  %46 = load ptr, ptr %9, align 8, !tbaa !38
  %47 = load ptr, ptr %10, align 8, !tbaa !8
  %48 = call ptr @cuddHashTableLookup1(ptr noundef %46, ptr noundef %47)
  store ptr %48, ptr %18, align 8, !tbaa !8
  %49 = icmp ne ptr %48, null
  br i1 %49, label %50, label %52

50:                                               ; preds = %45
  %51 = load ptr, ptr %18, align 8, !tbaa !8
  store ptr %51, ptr %7, align 8
  store i32 1, ptr %19, align 4
  br label %213

52:                                               ; preds = %45
  %53 = load ptr, ptr %8, align 8, !tbaa !3
  %54 = load ptr, ptr %9, align 8, !tbaa !38
  %55 = load ptr, ptr %10, align 8, !tbaa !8
  %56 = getelementptr inbounds nuw %struct.DdNode, ptr %55, i32 0, i32 3
  %57 = getelementptr inbounds nuw %struct.DdChildren, ptr %56, i32 0, i32 0
  %58 = load ptr, ptr %57, align 8, !tbaa !34
  %59 = load ptr, ptr %11, align 8, !tbaa !44
  %60 = load ptr, ptr %12, align 8, !tbaa !44
  %61 = load i32, ptr %13, align 4, !tbaa !10
  %62 = call ptr @cuddAddGeneralVectorComposeRecur(ptr noundef %53, ptr noundef %54, ptr noundef %58, ptr noundef %59, ptr noundef %60, i32 noundef %61)
  store ptr %62, ptr %14, align 8, !tbaa !8
  %63 = load ptr, ptr %14, align 8, !tbaa !8
  %64 = icmp eq ptr %63, null
  br i1 %64, label %65, label %66

65:                                               ; preds = %52
  store ptr null, ptr %7, align 8
  store i32 1, ptr %19, align 4
  br label %213

66:                                               ; preds = %52
  %67 = load ptr, ptr %14, align 8, !tbaa !8
  %68 = ptrtoint ptr %67 to i64
  %69 = and i64 %68, -2
  %70 = inttoptr i64 %69 to ptr
  %71 = getelementptr inbounds nuw %struct.DdNode, ptr %70, i32 0, i32 1
  %72 = load i32, ptr %71, align 4, !tbaa !35
  %73 = add i32 %72, 1
  store i32 %73, ptr %71, align 4, !tbaa !35
  %74 = load ptr, ptr %8, align 8, !tbaa !3
  %75 = load ptr, ptr %9, align 8, !tbaa !38
  %76 = load ptr, ptr %10, align 8, !tbaa !8
  %77 = getelementptr inbounds nuw %struct.DdNode, ptr %76, i32 0, i32 3
  %78 = getelementptr inbounds nuw %struct.DdChildren, ptr %77, i32 0, i32 1
  %79 = load ptr, ptr %78, align 8, !tbaa !34
  %80 = load ptr, ptr %11, align 8, !tbaa !44
  %81 = load ptr, ptr %12, align 8, !tbaa !44
  %82 = load i32, ptr %13, align 4, !tbaa !10
  %83 = call ptr @cuddAddGeneralVectorComposeRecur(ptr noundef %74, ptr noundef %75, ptr noundef %79, ptr noundef %80, ptr noundef %81, i32 noundef %82)
  store ptr %83, ptr %15, align 8, !tbaa !8
  %84 = load ptr, ptr %15, align 8, !tbaa !8
  %85 = icmp eq ptr %84, null
  br i1 %85, label %86, label %89

86:                                               ; preds = %66
  %87 = load ptr, ptr %8, align 8, !tbaa !3
  %88 = load ptr, ptr %14, align 8, !tbaa !8
  call void @Cudd_RecursiveDeref(ptr noundef %87, ptr noundef %88)
  store ptr null, ptr %7, align 8
  store i32 1, ptr %19, align 4
  br label %213

89:                                               ; preds = %66
  %90 = load ptr, ptr %15, align 8, !tbaa !8
  %91 = ptrtoint ptr %90 to i64
  %92 = and i64 %91, -2
  %93 = inttoptr i64 %92 to ptr
  %94 = getelementptr inbounds nuw %struct.DdNode, ptr %93, i32 0, i32 1
  %95 = load i32, ptr %94, align 4, !tbaa !35
  %96 = add i32 %95, 1
  store i32 %96, ptr %94, align 4, !tbaa !35
  %97 = load ptr, ptr %8, align 8, !tbaa !3
  %98 = load ptr, ptr %11, align 8, !tbaa !44
  %99 = load ptr, ptr %10, align 8, !tbaa !8
  %100 = getelementptr inbounds nuw %struct.DdNode, ptr %99, i32 0, i32 0
  %101 = load i32, ptr %100, align 8, !tbaa !33
  %102 = zext i32 %101 to i64
  %103 = getelementptr inbounds nuw ptr, ptr %98, i64 %102
  %104 = load ptr, ptr %103, align 8, !tbaa !8
  %105 = load ptr, ptr %14, align 8, !tbaa !8
  %106 = call ptr @cuddAddApplyRecur(ptr noundef %97, ptr noundef @Cudd_addTimes, ptr noundef %104, ptr noundef %105)
  store ptr %106, ptr %16, align 8, !tbaa !8
  %107 = load ptr, ptr %16, align 8, !tbaa !8
  %108 = icmp eq ptr %107, null
  br i1 %108, label %109, label %114

109:                                              ; preds = %89
  %110 = load ptr, ptr %8, align 8, !tbaa !3
  %111 = load ptr, ptr %14, align 8, !tbaa !8
  call void @Cudd_RecursiveDeref(ptr noundef %110, ptr noundef %111)
  %112 = load ptr, ptr %8, align 8, !tbaa !3
  %113 = load ptr, ptr %15, align 8, !tbaa !8
  call void @Cudd_RecursiveDeref(ptr noundef %112, ptr noundef %113)
  store ptr null, ptr %7, align 8
  store i32 1, ptr %19, align 4
  br label %213

114:                                              ; preds = %89
  %115 = load ptr, ptr %16, align 8, !tbaa !8
  %116 = ptrtoint ptr %115 to i64
  %117 = and i64 %116, -2
  %118 = inttoptr i64 %117 to ptr
  %119 = getelementptr inbounds nuw %struct.DdNode, ptr %118, i32 0, i32 1
  %120 = load i32, ptr %119, align 4, !tbaa !35
  %121 = add i32 %120, 1
  store i32 %121, ptr %119, align 4, !tbaa !35
  %122 = load ptr, ptr %8, align 8, !tbaa !3
  %123 = load ptr, ptr %12, align 8, !tbaa !44
  %124 = load ptr, ptr %10, align 8, !tbaa !8
  %125 = getelementptr inbounds nuw %struct.DdNode, ptr %124, i32 0, i32 0
  %126 = load i32, ptr %125, align 8, !tbaa !33
  %127 = zext i32 %126 to i64
  %128 = getelementptr inbounds nuw ptr, ptr %123, i64 %127
  %129 = load ptr, ptr %128, align 8, !tbaa !8
  %130 = load ptr, ptr %15, align 8, !tbaa !8
  %131 = call ptr @cuddAddApplyRecur(ptr noundef %122, ptr noundef @Cudd_addTimes, ptr noundef %129, ptr noundef %130)
  store ptr %131, ptr %17, align 8, !tbaa !8
  %132 = load ptr, ptr %17, align 8, !tbaa !8
  %133 = icmp eq ptr %132, null
  br i1 %133, label %134, label %141

134:                                              ; preds = %114
  %135 = load ptr, ptr %8, align 8, !tbaa !3
  %136 = load ptr, ptr %14, align 8, !tbaa !8
  call void @Cudd_RecursiveDeref(ptr noundef %135, ptr noundef %136)
  %137 = load ptr, ptr %8, align 8, !tbaa !3
  %138 = load ptr, ptr %15, align 8, !tbaa !8
  call void @Cudd_RecursiveDeref(ptr noundef %137, ptr noundef %138)
  %139 = load ptr, ptr %8, align 8, !tbaa !3
  %140 = load ptr, ptr %16, align 8, !tbaa !8
  call void @Cudd_RecursiveDeref(ptr noundef %139, ptr noundef %140)
  store ptr null, ptr %7, align 8
  store i32 1, ptr %19, align 4
  br label %213

141:                                              ; preds = %114
  %142 = load ptr, ptr %17, align 8, !tbaa !8
  %143 = ptrtoint ptr %142 to i64
  %144 = and i64 %143, -2
  %145 = inttoptr i64 %144 to ptr
  %146 = getelementptr inbounds nuw %struct.DdNode, ptr %145, i32 0, i32 1
  %147 = load i32, ptr %146, align 4, !tbaa !35
  %148 = add i32 %147, 1
  store i32 %148, ptr %146, align 4, !tbaa !35
  %149 = load ptr, ptr %8, align 8, !tbaa !3
  %150 = load ptr, ptr %16, align 8, !tbaa !8
  %151 = load ptr, ptr %17, align 8, !tbaa !8
  %152 = call ptr @cuddAddApplyRecur(ptr noundef %149, ptr noundef @Cudd_addPlus, ptr noundef %150, ptr noundef %151)
  store ptr %152, ptr %18, align 8, !tbaa !8
  %153 = load ptr, ptr %18, align 8, !tbaa !8
  %154 = icmp eq ptr %153, null
  br i1 %154, label %155, label %164

155:                                              ; preds = %141
  %156 = load ptr, ptr %8, align 8, !tbaa !3
  %157 = load ptr, ptr %14, align 8, !tbaa !8
  call void @Cudd_RecursiveDeref(ptr noundef %156, ptr noundef %157)
  %158 = load ptr, ptr %8, align 8, !tbaa !3
  %159 = load ptr, ptr %15, align 8, !tbaa !8
  call void @Cudd_RecursiveDeref(ptr noundef %158, ptr noundef %159)
  %160 = load ptr, ptr %8, align 8, !tbaa !3
  %161 = load ptr, ptr %16, align 8, !tbaa !8
  call void @Cudd_RecursiveDeref(ptr noundef %160, ptr noundef %161)
  %162 = load ptr, ptr %8, align 8, !tbaa !3
  %163 = load ptr, ptr %17, align 8, !tbaa !8
  call void @Cudd_RecursiveDeref(ptr noundef %162, ptr noundef %163)
  store ptr null, ptr %7, align 8
  store i32 1, ptr %19, align 4
  br label %213

164:                                              ; preds = %141
  %165 = load ptr, ptr %18, align 8, !tbaa !8
  %166 = ptrtoint ptr %165 to i64
  %167 = and i64 %166, -2
  %168 = inttoptr i64 %167 to ptr
  %169 = getelementptr inbounds nuw %struct.DdNode, ptr %168, i32 0, i32 1
  %170 = load i32, ptr %169, align 4, !tbaa !35
  %171 = add i32 %170, 1
  store i32 %171, ptr %169, align 4, !tbaa !35
  %172 = load ptr, ptr %8, align 8, !tbaa !3
  %173 = load ptr, ptr %14, align 8, !tbaa !8
  call void @Cudd_RecursiveDeref(ptr noundef %172, ptr noundef %173)
  %174 = load ptr, ptr %8, align 8, !tbaa !3
  %175 = load ptr, ptr %15, align 8, !tbaa !8
  call void @Cudd_RecursiveDeref(ptr noundef %174, ptr noundef %175)
  %176 = load ptr, ptr %8, align 8, !tbaa !3
  %177 = load ptr, ptr %16, align 8, !tbaa !8
  call void @Cudd_RecursiveDeref(ptr noundef %176, ptr noundef %177)
  %178 = load ptr, ptr %8, align 8, !tbaa !3
  %179 = load ptr, ptr %17, align 8, !tbaa !8
  call void @Cudd_RecursiveDeref(ptr noundef %178, ptr noundef %179)
  %180 = load ptr, ptr %10, align 8, !tbaa !8
  %181 = getelementptr inbounds nuw %struct.DdNode, ptr %180, i32 0, i32 1
  %182 = load i32, ptr %181, align 4, !tbaa !35
  %183 = icmp ne i32 %182, 1
  br i1 %183, label %184, label %204

184:                                              ; preds = %164
  call void @llvm.lifetime.start.p0(i64 8, ptr %20) #6
  %185 = load ptr, ptr %10, align 8, !tbaa !8
  %186 = getelementptr inbounds nuw %struct.DdNode, ptr %185, i32 0, i32 1
  %187 = load i32, ptr %186, align 4, !tbaa !35
  %188 = zext i32 %187 to i64
  store i64 %188, ptr %20, align 8, !tbaa !43
  %189 = load i64, ptr %20, align 8, !tbaa !43
  %190 = add nsw i64 %189, -1
  store i64 %190, ptr %20, align 8, !tbaa !43
  %191 = load ptr, ptr %9, align 8, !tbaa !38
  %192 = load ptr, ptr %10, align 8, !tbaa !8
  %193 = load ptr, ptr %18, align 8, !tbaa !8
  %194 = load i64, ptr %20, align 8, !tbaa !43
  %195 = call i32 @cuddHashTableInsert1(ptr noundef %191, ptr noundef %192, ptr noundef %193, i64 noundef %194)
  %196 = icmp ne i32 %195, 0
  br i1 %196, label %200, label %197

197:                                              ; preds = %184
  %198 = load ptr, ptr %8, align 8, !tbaa !3
  %199 = load ptr, ptr %18, align 8, !tbaa !8
  call void @Cudd_RecursiveDeref(ptr noundef %198, ptr noundef %199)
  store ptr null, ptr %7, align 8
  store i32 1, ptr %19, align 4
  br label %201

200:                                              ; preds = %184
  store i32 0, ptr %19, align 4
  br label %201

201:                                              ; preds = %200, %197
  call void @llvm.lifetime.end.p0(i64 8, ptr %20) #6
  %202 = load i32, ptr %19, align 4
  switch i32 %202, label %213 [
    i32 0, label %203
  ]

203:                                              ; preds = %201
  br label %204

204:                                              ; preds = %203, %164
  %205 = load ptr, ptr %18, align 8, !tbaa !8
  %206 = ptrtoint ptr %205 to i64
  %207 = and i64 %206, -2
  %208 = inttoptr i64 %207 to ptr
  %209 = getelementptr inbounds nuw %struct.DdNode, ptr %208, i32 0, i32 1
  %210 = load i32, ptr %209, align 4, !tbaa !35
  %211 = add i32 %210, -1
  store i32 %211, ptr %209, align 4, !tbaa !35
  %212 = load ptr, ptr %18, align 8, !tbaa !8
  store ptr %212, ptr %7, align 8
  store i32 1, ptr %19, align 4
  br label %213

213:                                              ; preds = %204, %201, %155, %134, %109, %86, %65, %50, %43
  call void @llvm.lifetime.end.p0(i64 8, ptr %18) #6
  call void @llvm.lifetime.end.p0(i64 8, ptr %17) #6
  call void @llvm.lifetime.end.p0(i64 8, ptr %16) #6
  call void @llvm.lifetime.end.p0(i64 8, ptr %15) #6
  call void @llvm.lifetime.end.p0(i64 8, ptr %14) #6
  %214 = load ptr, ptr %7, align 8
  ret ptr %214
}