; Function Attrs: nounwind uwtable
define internal fastcc ptr @cuddAddGeneralVectorComposeRecur(ptr noundef %0, ptr noundef nonnull %1, ptr noundef %2, ptr noundef %3, ptr noundef %4, i32 noundef range(i32 -2147483648, 2147483647) %5) unnamed_addr #0 {
  %7 = load i32, ptr %2, align 8, !tbaa !30
  %8 = icmp eq i32 %7, 2147483647
  br i1 %8, label %.thread, label %9

9:                                                ; preds = %6
  %10 = getelementptr inbounds nuw i8, ptr %0, i64 312
  %11 = load ptr, ptr %10, align 8, !tbaa !29
  %12 = zext i32 %7 to i64
  %13 = getelementptr inbounds nuw i32, ptr %11, i64 %12
  %14 = load i32, ptr %13, align 4, !tbaa !31
  %15 = icmp sgt i32 %14, %5
  br i1 %15, label %.thread, label %16

16:                                               ; preds = %9
  %17 = tail call ptr @cuddHashTableLookup1(ptr noundef nonnull %1, ptr noundef nonnull %2) #7
  %.not = icmp eq ptr %17, null
  br i1 %.not, label %18, label %.thread

18:                                               ; preds = %16
  %19 = getelementptr inbounds nuw i8, ptr %2, i64 16
  %20 = load ptr, ptr %19, align 8, !tbaa !32
  %21 = tail call fastcc ptr @cuddAddGeneralVectorComposeRecur(ptr noundef nonnull %0, ptr noundef %1, ptr noundef %20, ptr noundef %3, ptr noundef %4, i32 noundef %5)
  %22 = icmp eq ptr %21, null
  br i1 %22, label %.thread, label %23

23:                                               ; preds = %18
  %24 = ptrtoint ptr %21 to i64
  %25 = and i64 %24, -2
  %26 = inttoptr i64 %25 to ptr
  %27 = getelementptr inbounds nuw i8, ptr %26, i64 4
  %28 = load i32, ptr %27, align 4, !tbaa !33
  %29 = add i32 %28, 1
  store i32 %29, ptr %27, align 4, !tbaa !33
  %30 = getelementptr inbounds nuw i8, ptr %2, i64 24
  %31 = load ptr, ptr %30, align 8, !tbaa !32
  %32 = tail call fastcc ptr @cuddAddGeneralVectorComposeRecur(ptr noundef nonnull %0, ptr noundef %1, ptr noundef %31, ptr noundef %3, ptr noundef %4, i32 noundef %5)
  %33 = icmp eq ptr %32, null
  br i1 %33, label %34, label %35

34:                                               ; preds = %23
  tail call void @Cudd_RecursiveDeref(ptr noundef nonnull %0, ptr noundef nonnull %21) #7
  br label %.thread

35:                                               ; preds = %23
  %36 = ptrtoint ptr %32 to i64
  %37 = and i64 %36, -2
  %38 = inttoptr i64 %37 to ptr
  %39 = getelementptr inbounds nuw i8, ptr %38, i64 4
  %40 = load i32, ptr %39, align 4, !tbaa !33
  %41 = add i32 %40, 1
  store i32 %41, ptr %39, align 4, !tbaa !33
  %42 = load i32, ptr %2, align 8, !tbaa !30
  %43 = zext i32 %42 to i64
  %44 = getelementptr inbounds nuw ptr, ptr %3, i64 %43
  %45 = load ptr, ptr %44, align 8, !tbaa !25
  %46 = tail call ptr @cuddAddApplyRecur(ptr noundef nonnull %0, ptr noundef nonnull @Cudd_addTimes, ptr noundef %45, ptr noundef nonnull %21) #7
  %47 = icmp eq ptr %46, null
  br i1 %47, label %48, label %49

48:                                               ; preds = %35
  tail call void @Cudd_RecursiveDeref(ptr noundef nonnull %0, ptr noundef nonnull %21) #7
  tail call void @Cudd_RecursiveDeref(ptr noundef nonnull %0, ptr noundef nonnull %32) #7
  br label %.thread

49:                                               ; preds = %35
  %50 = ptrtoint ptr %46 to i64
  %51 = and i64 %50, -2
  %52 = inttoptr i64 %51 to ptr
  %53 = getelementptr inbounds nuw i8, ptr %52, i64 4
  %54 = load i32, ptr %53, align 4, !tbaa !33
  %55 = add i32 %54, 1
  store i32 %55, ptr %53, align 4, !tbaa !33
  %56 = load i32, ptr %2, align 8, !tbaa !30
  %57 = zext i32 %56 to i64
  %58 = getelementptr inbounds nuw ptr, ptr %4, i64 %57
  %59 = load ptr, ptr %58, align 8, !tbaa !25
  %60 = tail call ptr @cuddAddApplyRecur(ptr noundef nonnull %0, ptr noundef nonnull @Cudd_addTimes, ptr noundef %59, ptr noundef nonnull %32) #7
  %61 = icmp eq ptr %60, null
  br i1 %61, label %62, label %63

62:                                               ; preds = %49
  tail call void @Cudd_RecursiveDeref(ptr noundef nonnull %0, ptr noundef nonnull %21) #7
  tail call void @Cudd_RecursiveDeref(ptr noundef nonnull %0, ptr noundef nonnull %32) #7
  tail call void @Cudd_RecursiveDeref(ptr noundef nonnull %0, ptr noundef nonnull %46) #7
  br label %.thread

63:                                               ; preds = %49
  %64 = ptrtoint ptr %60 to i64
  %65 = and i64 %64, -2
  %66 = inttoptr i64 %65 to ptr
  %67 = getelementptr inbounds nuw i8, ptr %66, i64 4
  %68 = load i32, ptr %67, align 4, !tbaa !33
  %69 = add i32 %68, 1
  store i32 %69, ptr %67, align 4, !tbaa !33
  %70 = tail call ptr @cuddAddApplyRecur(ptr noundef nonnull %0, ptr noundef nonnull @Cudd_addPlus, ptr noundef nonnull %46, ptr noundef nonnull %60) #7
  %71 = icmp eq ptr %70, null
  br i1 %71, label %72, label %73

72:                                               ; preds = %63
  tail call void @Cudd_RecursiveDeref(ptr noundef nonnull %0, ptr noundef nonnull %21) #7
  tail call void @Cudd_RecursiveDeref(ptr noundef nonnull %0, ptr noundef nonnull %32) #7
  tail call void @Cudd_RecursiveDeref(ptr noundef nonnull %0, ptr noundef nonnull %46) #7
  tail call void @Cudd_RecursiveDeref(ptr noundef nonnull %0, ptr noundef nonnull %60) #7
  br label %.thread

73:                                               ; preds = %63
  %74 = ptrtoint ptr %70 to i64
  %75 = and i64 %74, -2
  %76 = inttoptr i64 %75 to ptr
  %77 = getelementptr inbounds nuw i8, ptr %76, i64 4
  %78 = load i32, ptr %77, align 4, !tbaa !33
  %79 = add i32 %78, 1
  store i32 %79, ptr %77, align 4, !tbaa !33
  tail call void @Cudd_RecursiveDeref(ptr noundef nonnull %0, ptr noundef nonnull %21) #7
  tail call void @Cudd_RecursiveDeref(ptr noundef nonnull %0, ptr noundef nonnull %32) #7
  tail call void @Cudd_RecursiveDeref(ptr noundef nonnull %0, ptr noundef nonnull %46) #7
  tail call void @Cudd_RecursiveDeref(ptr noundef nonnull %0, ptr noundef nonnull %60) #7
  %80 = getelementptr inbounds nuw i8, ptr %2, i64 4
  %81 = load i32, ptr %80, align 4, !tbaa !33
  %.not92 = icmp eq i32 %81, 1
  br i1 %.not92, label %.critedge, label %82

82:                                               ; preds = %73
  %83 = zext i32 %81 to i64
  %84 = add nsw i64 %83, -1
  %85 = tail call i32 @cuddHashTableInsert1(ptr noundef nonnull %1, ptr noundef nonnull %2, ptr noundef nonnull %70, i64 noundef %84) #7
  %.not93.not = icmp eq i32 %85, 0
  br i1 %.not93.not, label %86, label %.critedge

86:                                               ; preds = %82
  tail call void @Cudd_RecursiveDeref(ptr noundef nonnull %0, ptr noundef nonnull %70) #7
  br label %.thread

.critedge:                                        ; preds = %82, %73
  %87 = load i32, ptr %77, align 4, !tbaa !33
  %88 = add i32 %87, -1
  store i32 %88, ptr %77, align 4, !tbaa !33
  br label %.thread

.thread:                                          ; preds = %6, %86, %18, %16, %9, %.critedge, %72, %62, %48, %34
  %.0 = phi ptr [ null, %34 ], [ null, %48 ], [ null, %62 ], [ null, %72 ], [ %70, %.critedge ], [ null, %86 ], [ %2, %9 ], [ %17, %16 ], [ null, %18 ], [ %2, %6 ]
  ret ptr %.0
}